target datalayout = "e-m:e-p270:32:32-p271:32:32-p272:64:64-i64:64-i128:128-f80:128-n8:16:32:64-S128"
target triple = "x86_64-pc-linux-gnu"

%struct.__va_list_tag = type { i32, i32, ptr, ptr }

; Function Attrs: nounwind uwtable
define i32 @zend_execute_scripts(i32 noundef %0, ptr noundef %1, i32 noundef %2, ...) #0 {
  %4 = alloca i32, align 4
  %5 = alloca ptr, align 8
  %6 = alloca i32, align 4
  %7 = alloca [1 x %struct.__va_list_tag], align 16
  %8 = alloca i32, align 4
  %9 = alloca ptr, align 8
  %10 = alloca i32, align 4
  store i32 %0, ptr %4, align 4
  store ptr %1, ptr %5, align 8
  store i32 %2, ptr %6, align 4
  store i32 0, ptr %10, align 4
  %11 = getelementptr inbounds [1 x %struct.__va_list_tag], ptr %7, i64 0, i64 0
  call void @llvm.va_start(ptr %11)
  store i32 0, ptr %8, align 4
  br label %12

12:                                               ; preds = %45, %3
  %13 = load i32, ptr %8, align 4
  %14 = load i32, ptr %6, align 4
  %15 = icmp slt i32 %13, %14
  br i1 %15, label %16, label %48

16:                                               ; preds = %12
  %17 = getelementptr inbounds [1 x %struct.__va_list_tag], ptr %7, i64 0, i64 0
  %18 = getelementptr inbounds %struct.__va_list_tag, ptr %17, i32 0, i32 0
  %19 = load i32, ptr %18, align 16
  %20 = icmp ule i32 %19, 40
  br i1 %20, label %21, label %26

21:                                               ; preds = %16
  %22 = getelementptr inbounds %struct.__va_list_tag, ptr %17, i32 0, i32 3
  %23 = load ptr, ptr %22, align 16
  %24 = getelementptr i8, ptr %23, i32 %19
  %25 = add i32 %19, 8
  store i32 %25, ptr %18, align 16
  br label %30

26:                                               ; preds = %16
  %27 = getelementptr inbounds %struct.__va_list_tag, ptr %17, i32 0, i32 2
  %28 = load ptr, ptr %27, align 8
  %29 = getelementptr i8, ptr %28, i32 8
  store ptr %29, ptr %27, align 8
  br label %30

30:                                               ; preds = %26, %21
  %31 = phi ptr [ %24, %21 ], [ %28, %26 ]
  %32 = load ptr, ptr %31, align 8
  store ptr %32, ptr %9, align 8
  %33 = load ptr, ptr %9, align 8
  %34 = icmp ne ptr %33, null
  br i1 %34, label %36, label %35

35:                                               ; preds = %30
  br label %45

36:                                               ; preds = %30
  %37 = load i32, ptr %10, align 4
  %38 = icmp eq i32 %37, -1
  br i1 %38, label %39, label %40

39:                                               ; preds = %36
  br label %45

40:                                               ; preds = %36
  %41 = load i32, ptr %4, align 4
  %42 = load ptr, ptr %5, align 8
  %43 = load ptr, ptr %9, align 8
  %44 = call i32 @zend_execute_script(i32 noundef %41, ptr noundef %42, ptr noundef %43)
  store i32 %44, ptr %10, align 4
  br label %45

45:                                               ; preds = %40, %39, %35
  %46 = load i32, ptr %8, align 4
  %47 = add nsw i32 %46, 1
  store i32 %47, ptr %8, align 4
  br label %12

48:                                               ; preds = %12
  %49 = getelementptr inbounds [1 x %struct.__va_list_tag], ptr %7, i64 0, i64 0
  call void @llvm.va_end(ptr %49)
  %50 = load i32, ptr %10, align 4
  ret i32 %50
}