; Function Attrs: nounwind uwtable
define i32 @zend_execute_scripts(i32 noundef %0, ptr noundef %1, i32 noundef %2, ...) local_unnamed_addr #0 {
  %4 = alloca [1 x %struct.__va_list_tag], align 16
  call void @llvm.va_start(ptr nonnull %4)
  %5 = icmp sgt i32 %2, 0
  br i1 %5, label %.lr.ph, label %._crit_edge

.lr.ph:                                           ; preds = %3
  %6 = getelementptr inbounds i8, ptr %4, i64 8
  %7 = getelementptr inbounds i8, ptr %4, i64 16
  br label %8

8:                                                ; preds = %.lr.ph, %26
  %.013 = phi i32 [ 0, %.lr.ph ], [ %.1, %26 ]
  %.0912 = phi i32 [ 0, %.lr.ph ], [ %27, %26 ]
  %9 = load i32, ptr %4, align 16
  %10 = icmp ult i32 %9, 41
  br i1 %10, label %11, label %16

11:                                               ; preds = %8
  %12 = load ptr, ptr %7, align 16
  %13 = zext nneg i32 %9 to i64
  %14 = getelementptr i8, ptr %12, i64 %13
  %15 = add nuw nsw i32 %9, 8
  store i32 %15, ptr %4, align 16
  br label %19

16:                                               ; preds = %8
  %17 = load ptr, ptr %6, align 8
  %18 = getelementptr i8, ptr %17, i64 8
  store ptr %18, ptr %6, align 8
  br label %19

19:                                               ; preds = %16, %11
  %20 = phi ptr [ %14, %11 ], [ %17, %16 ]
  %21 = load ptr, ptr %20, align 8
  %22 = icmp eq ptr %21, null
  %23 = icmp eq i32 %.013, -1
  %or.cond = select i1 %22, i1 true, i1 %23
  br i1 %or.cond, label %26, label %24

24:                                               ; preds = %19
  %25 = call i32 @zend_execute_script(i32 noundef %0, ptr noundef %1, ptr noundef nonnull %21)
  br label %26

26:                                               ; preds = %19, %24
  %.1 = phi i32 [ %.013, %19 ], [ %25, %24 ]
  %27 = add nuw nsw i32 %.0912, 1
  %exitcond.not = icmp eq i32 %27, %2
  br i1 %exitcond.not, label %._crit_edge, label %8

._crit_edge:                                      ; preds = %26, %3
  %.0.lcssa = phi i32 [ 0, %3 ], [ %.1, %26 ]
  call void @llvm.va_end(ptr nonnull %4)
  ret i32 %.0.lcssa
}